target datalayout = "e-m:e-p270:32:32-p271:32:32-p272:64:64-i64:64-i128:128-f80:128-n8:16:32:64-S128"
target triple = "x86_64-pc-linux-gnu"

%struct.H264Picture = type { ptr, %struct.ThreadFrame, ptr, ptr, ptr, [2 x ptr], [2 x ptr], ptr, ptr, ptr, [2 x ptr], [2 x i32], i32, i32, i32, i32, i32, [2 x [2 x [32 x i32]]], [2 x [2 x i32]], i32, i32, i32, i32, i32, i32, i32, ptr, i32, i32, i32, ptr, i32 }
%struct.ThreadFrame = type { ptr, [2 x ptr], ptr }
%struct.AVRational = type { i32, i32 }
%struct.AVChannelLayout = type { i32, i32, %union.anon, ptr }
%union.anon = type { i64 }
%struct.ERPicture = type { ptr, ptr, ptr, [2 x ptr], [2 x ptr], ptr, i32 }
%struct.H264Context = type { ptr, ptr, %struct.VideoDSPContext, %struct.H264DSPContext, %struct.H264ChromaContext, %struct.H264QpelContext, %struct.H274FilmGrainDatabase, [36 x %struct.H264Picture], ptr, %struct.H264Picture, %struct.H264Picture, ptr, i32, i32, %struct.H2645Packet, i32, i32, i32, i32, i32, i32, i32, i32, i32, i32, i32, i32, i32, i32, i32, i32, i32, ptr, %struct.H264PredContext, ptr, [96 x i32], ptr, ptr, i32, ptr, i32, i32, i32, ptr, ptr, ptr, [2 x ptr], ptr, [16 x i8], [16 x i8], [64 x i8], [64 x i8], [16 x i8], [64 x i8], [64 x i8], [16 x i8], [64 x i8], [64 x i8], [16 x i8], [64 x i8], [64 x i8], i32, i32, i32, i32, i32, i32, i32, i32, i32, i32, i32, i32, %struct.H264ParamSets, ptr, %struct.H264POCContext, [2 x %struct.H264Ref], [32 x ptr], [32 x ptr], [18 x ptr], [16 x i32], ptr, i32, i32, [67 x %struct.MMCO], i32, i32, i32, i32, i32, i32, i32, i32, i32, i32, i32, i32, i32, i32, i32, [32 x i16], i32, i32, i32, %struct.ERContext, ptr, %struct.H264SEIContext, ptr, ptr, ptr, ptr, ptr, [32 x [2 x [64 x i32]]], i32, i32, i32 }
%struct.VideoDSPContext = type { ptr, ptr }
%struct.H264DSPContext = type { [4 x ptr], [4 x ptr], ptr, ptr, ptr, ptr, ptr, ptr, ptr, ptr, ptr, ptr, ptr, ptr, ptr, ptr, ptr, ptr, ptr, ptr, ptr, ptr, ptr, ptr, ptr, ptr, ptr, ptr }
%struct.H264ChromaContext = type { [4 x ptr], [4 x ptr] }
%struct.H264QpelContext = type { [4 x [16 x ptr]], [4 x [16 x ptr]] }
%struct.H274FilmGrainDatabase = type { [13 x [13 x [64 x [64 x i8]]]], [13 x i16], [64 x [64 x i16]] }
%struct.H2645Packet = type { ptr, %struct.H2645RBSP, i32, i32, i32 }
%struct.H2645RBSP = type { ptr, ptr, i32, i32 }
%struct.H264PredContext = type { [15 x ptr], [12 x ptr], [11 x ptr], [9 x ptr], [2 x ptr], [2 x ptr], [2 x ptr], [3 x ptr], [3 x ptr] }
%struct.H264ParamSets = type { [32 x ptr], [256 x ptr], ptr, ptr, [2 x i32] }
%struct.H264POCContext = type { i32, i32, i32, [2 x i32], i32, i32, i32, i32, i32, i32 }
%struct.H264Ref = type { [3 x ptr], [3 x i32], i32, i32, i32, ptr }
%struct.MMCO = type { i32, i32, i32 }
%struct.ERContext = type { ptr, ptr, i32, ptr, i32, i32, i32, i64, i64, i32, i32, ptr, ptr, [3 x ptr], ptr, ptr, [2 x [4 x [2 x i32]]], %struct.ERPicture, %struct.ERPicture, %struct.ERPicture, [2 x ptr], [2 x ptr], i16, i16, i32, i32, ptr, ptr }
%struct.H264SEIContext = type { %struct.H2645SEI, %struct.H264SEIPictureTiming, %struct.H264SEIRecoveryPoint, %struct.H264SEIBufferingPeriod, %struct.H264SEIGreenMetaData }
%struct.H2645SEI = type { %struct.H2645SEIA53Caption, %struct.H2645SEIAFD, %struct.HEVCSEIDynamicHDRPlus, %struct.HEVCSEIDynamicHDRVivid, %struct.HEVCSEILCEVC, %struct.H2645SEIUnregistered, %struct.H2645SEIFramePacking, %struct.H2645SEIDisplayOrientation, %struct.H2645SEIAlternativeTransfer, %struct.H2645SEIAmbientViewingEnvironment, %struct.H2645SEIMasteringDisplay, %struct.H2645SEIContentLight, %struct.AVFilmGrainAFGS1Params, ptr }
%struct.H2645SEIA53Caption = type { ptr }
%struct.H2645SEIAFD = type { i32, i8 }
%struct.HEVCSEIDynamicHDRPlus = type { ptr }
%struct.HEVCSEIDynamicHDRVivid = type { ptr }
%struct.HEVCSEILCEVC = type { ptr }
%struct.H2645SEIUnregistered = type { ptr, i32, i32 }
%struct.H2645SEIFramePacking = type { i32, i32, i32, i32, i32, i32, i32, i32 }
%struct.H2645SEIDisplayOrientation = type { i32, i32, i32, i32 }
%struct.H2645SEIAlternativeTransfer = type { i32, i32 }
%struct.H2645SEIAmbientViewingEnvironment = type { i32, i32, i16, i16 }
%struct.H2645SEIMasteringDisplay = type { i32, [3 x [2 x i16]], [2 x i16], i32, i32 }
%struct.H2645SEIContentLight = type { i32, i16, i16 }
%struct.AVFilmGrainAFGS1Params = type { i32, [8 x ptr] }
%struct.H264SEIPictureTiming = type { [40 x i8], i32, i32, i32, i32, i32, i32, [3 x %struct.H264SEITimeCode], i32 }
%struct.H264SEITimeCode = type { i32, i32, i32, i32, i32, i32 }
%struct.H264SEIRecoveryPoint = type { i32 }
%struct.H264SEIBufferingPeriod = type { i32, [32 x i32] }
%struct.H264SEIGreenMetaData = type { i8, i8, i16, i16, i8, i8, i8, i8, i8, i16 }
%struct.AVCodecContext = type { ptr, i32, i32, ptr, i32, i32, ptr, ptr, ptr, i64, i32, i32, ptr, i32, %struct.AVRational, %struct.AVRational, %struct.AVRational, i32, i32, i32, i32, i32, %struct.AVRational, i32, i32, i32, i32, i32, i32, i32, i32, i32, i32, i32, ptr, ptr, i32, float, float, float, float, float, float, float, float, float, i32, i32, i32, i32, i32, i32, i32, i32, i32, i32, i32, i32, ptr, ptr, ptr, i32, i32, i32, i32, i32, i32, i32, i32, i32, i32, %struct.AVChannelLayout, i32, i32, i32, i32, i32, i32, i32, i32, ptr, i32, i32, i32, float, float, i32, i32, i32, i32, i32, ptr, i64, i64, float, float, i32, i32, ptr, ptr, i32, i32, i32, i32, i32, ptr, ptr, ptr, ptr, i32, i32, [8 x i64], i32, i32, i32, i32, i32, i32, i32, ptr, ptr, i32, i32, i32, i32, i32, i32, i32, i32, i32, i32, ptr, ptr, i32, i32, ptr, ptr, ptr, ptr, i32, i32, i64, i32, i32, i64, ptr, i64, ptr, i32, ptr, i32 }
%struct.FFHWAccel = type { %struct.AVHWAccel, ptr, ptr, ptr, ptr, ptr, i32, i32, i32, ptr, ptr, ptr, ptr, ptr, ptr }
%struct.AVHWAccel = type { ptr, i32, i32, i32, i32 }
%struct.AVFrameSideData = type { i32, ptr, i64, ptr, ptr }

@.str.5 = private unnamed_addr constant [47 x i8] c"hardware accelerator failed to decode picture\0A\00", align 1
@.str.6 = private unnamed_addr constant [46 x i8] c"Failed synthesizing film grain, ignoring: %s\0A\00", align 1

; Function Attrs: inlinehint nounwind uwtable
define internal ptr @av_make_error_string(ptr noundef %0, i64 noundef %1, i32 noundef %2) #5 {
  %4 = alloca ptr, align 8
  %5 = alloca i64, align 8
  %6 = alloca i32, align 4
  store ptr %0, ptr %4, align 8, !tbaa !31
  store i64 %1, ptr %5, align 8, !tbaa !146
  store i32 %2, ptr %6, align 4, !tbaa !9
  %7 = load i32, ptr %6, align 4, !tbaa !9
  %8 = load ptr, ptr %4, align 8, !tbaa !31
  %9 = load i64, ptr %5, align 8, !tbaa !146
  %10 = call i32 @av_strerror(i32 noundef %7, ptr noundef %8, i64 noundef %9)
  %11 = load ptr, ptr %4, align 8, !tbaa !31
  ret ptr %11
}

; Function Attrs: inlinehint nounwind uwtable
define internal ptr @ffhwaccel(ptr noundef %0) #5 {
  %2 = alloca ptr, align 8
  store ptr %0, ptr %2, align 8, !tbaa !145
  %3 = load ptr, ptr %2, align 8, !tbaa !145
  ret ptr %3
}

; Function Attrs: nounwind uwtable
define i32 @ff_h264_field_end(ptr noundef %0, ptr noundef %1, i32 noundef %2) #0 {
  %4 = alloca ptr, align 8
  %5 = alloca ptr, align 8
  %6 = alloca i32, align 4
  %7 = alloca ptr, align 8
  %8 = alloca ptr, align 8
  %9 = alloca i32, align 4
  %10 = alloca ptr, align 8
  %11 = alloca [64 x i8], align 1
  store ptr %0, ptr %4, align 8, !tbaa !63
  store ptr %1, ptr %5, align 8, !tbaa !65
  store i32 %2, ptr %6, align 4, !tbaa !9
  call void @llvm.lifetime.start.p0(i64 8, ptr %7) #7
  %12 = load ptr, ptr %4, align 8, !tbaa !63
  %13 = getelementptr inbounds nuw %struct.H264Context, ptr %12, i32 0, i32 1
  %14 = load ptr, ptr %13, align 8, !tbaa !67
  store ptr %14, ptr %7, align 8, !tbaa !109
  call void @llvm.lifetime.start.p0(i64 8, ptr %8) #7
  %15 = load ptr, ptr %4, align 8, !tbaa !63
  %16 = getelementptr inbounds nuw %struct.H264Context, ptr %15, i32 0, i32 8
  %17 = load ptr, ptr %16, align 8, !tbaa !110
  store ptr %17, ptr %8, align 8, !tbaa !4
  call void @llvm.lifetime.start.p0(i64 4, ptr %9) #7
  store i32 0, ptr %9, align 4, !tbaa !9
  %18 = load ptr, ptr %4, align 8, !tbaa !63
  %19 = getelementptr inbounds nuw %struct.H264Context, ptr %18, i32 0, i32 61
  store i32 0, ptr %19, align 8, !tbaa !111
  %20 = load i32, ptr %6, align 4, !tbaa !9
  %21 = icmp ne i32 %20, 0
  br i1 %21, label %28, label %22

22:                                               ; preds = %3
  %23 = load ptr, ptr %7, align 8, !tbaa !109
  %24 = getelementptr inbounds nuw %struct.AVCodecContext, ptr %23, i32 0, i32 118
  %25 = load i32, ptr %24, align 8, !tbaa !112
  %26 = and i32 %25, 1
  %27 = icmp ne i32 %26, 0
  br i1 %27, label %65, label %28

28:                                               ; preds = %22, %3
  %29 = load ptr, ptr %4, align 8, !tbaa !63
  %30 = getelementptr inbounds nuw %struct.H264Context, ptr %29, i32 0, i32 20
  %31 = load i32, ptr %30, align 4, !tbaa !124
  %32 = icmp ne i32 %31, 0
  br i1 %32, label %50, label %33

33:                                               ; preds = %28
  %34 = load ptr, ptr %4, align 8, !tbaa !63
  %35 = call i32 @ff_h264_execute_ref_pic_marking(ptr noundef %34)
  store i32 %35, ptr %9, align 4, !tbaa !9
  %36 = load ptr, ptr %4, align 8, !tbaa !63
  %37 = getelementptr inbounds nuw %struct.H264Context, ptr %36, i32 0, i32 75
  %38 = getelementptr inbounds nuw %struct.H264POCContext, ptr %37, i32 0, i32 1
  %39 = load i32, ptr %38, align 4, !tbaa !125
  %40 = load ptr, ptr %4, align 8, !tbaa !63
  %41 = getelementptr inbounds nuw %struct.H264Context, ptr %40, i32 0, i32 75
  %42 = getelementptr inbounds nuw %struct.H264POCContext, ptr %41, i32 0, i32 5
  store i32 %39, ptr %42, align 8, !tbaa !126
  %43 = load ptr, ptr %4, align 8, !tbaa !63
  %44 = getelementptr inbounds nuw %struct.H264Context, ptr %43, i32 0, i32 75
  %45 = getelementptr inbounds nuw %struct.H264POCContext, ptr %44, i32 0, i32 0
  %46 = load i32, ptr %45, align 8, !tbaa !127
  %47 = load ptr, ptr %4, align 8, !tbaa !63
  %48 = getelementptr inbounds nuw %struct.H264Context, ptr %47, i32 0, i32 75
  %49 = getelementptr inbounds nuw %struct.H264POCContext, ptr %48, i32 0, i32 6
  store i32 %46, ptr %49, align 4, !tbaa !128
  br label %50

50:                                               ; preds = %33, %28
  %51 = load ptr, ptr %4, align 8, !tbaa !63
  %52 = getelementptr inbounds nuw %struct.H264Context, ptr %51, i32 0, i32 75
  %53 = getelementptr inbounds nuw %struct.H264POCContext, ptr %52, i32 0, i32 7
  %54 = load i32, ptr %53, align 8, !tbaa !129
  %55 = load ptr, ptr %4, align 8, !tbaa !63
  %56 = getelementptr inbounds nuw %struct.H264Context, ptr %55, i32 0, i32 75
  %57 = getelementptr inbounds nuw %struct.H264POCContext, ptr %56, i32 0, i32 8
  store i32 %54, ptr %57, align 4, !tbaa !130
  %58 = load ptr, ptr %4, align 8, !tbaa !63
  %59 = getelementptr inbounds nuw %struct.H264Context, ptr %58, i32 0, i32 75
  %60 = getelementptr inbounds nuw %struct.H264POCContext, ptr %59, i32 0, i32 4
  %61 = load i32, ptr %60, align 4, !tbaa !131
  %62 = load ptr, ptr %4, align 8, !tbaa !63
  %63 = getelementptr inbounds nuw %struct.H264Context, ptr %62, i32 0, i32 75
  %64 = getelementptr inbounds nuw %struct.H264POCContext, ptr %63, i32 0, i32 9
  store i32 %61, ptr %64, align 8, !tbaa !132
  br label %65

65:                                               ; preds = %50, %22
  %66 = load ptr, ptr %7, align 8, !tbaa !109
  %67 = getelementptr inbounds nuw %struct.AVCodecContext, ptr %66, i32 0, i32 105
  %68 = load ptr, ptr %67, align 8, !tbaa !133
  %69 = icmp ne ptr %68, null
  br i1 %69, label %70, label %84

70:                                               ; preds = %65
  %71 = load ptr, ptr %7, align 8, !tbaa !109
  %72 = getelementptr inbounds nuw %struct.AVCodecContext, ptr %71, i32 0, i32 105
  %73 = load ptr, ptr %72, align 8, !tbaa !133
  %74 = call ptr @ffhwaccel(ptr noundef %73)
  %75 = getelementptr inbounds nuw %struct.FFHWAccel, ptr %74, i32 0, i32 5
  %76 = load ptr, ptr %75, align 8, !tbaa !134
  %77 = load ptr, ptr %7, align 8, !tbaa !109
  %78 = call i32 %76(ptr noundef %77)
  store i32 %78, ptr %9, align 4, !tbaa !9
  %79 = load i32, ptr %9, align 4, !tbaa !9
  %80 = icmp slt i32 %79, 0
  br i1 %80, label %81, label %83

81:                                               ; preds = %70
  %82 = load ptr, ptr %7, align 8, !tbaa !109
  call void (ptr, i32, ptr, ...) @av_log(ptr noundef %82, i32 noundef 16, ptr noundef @.str.5)
  br label %83

83:                                               ; preds = %81, %70
  br label %136

84:                                               ; preds = %65
  %85 = load i32, ptr %6, align 4, !tbaa !9
  %86 = icmp ne i32 %85, 0
  br i1 %86, label %135, label %87

87:                                               ; preds = %84
  %88 = load ptr, ptr %8, align 8, !tbaa !4
  %89 = getelementptr inbounds nuw %struct.H264Picture, ptr %88, i32 0, i32 25
  %90 = load i32, ptr %89, align 4, !tbaa !25
  %91 = icmp ne i32 %90, 0
  br i1 %91, label %92, label %135

92:                                               ; preds = %87
  %93 = load ptr, ptr %4, align 8, !tbaa !63
  %94 = getelementptr inbounds nuw %struct.H264Context, ptr %93, i32 0, i32 41
  %95 = load i32, ptr %94, align 4, !tbaa !137
  %96 = icmp ne i32 %95, 3
  br i1 %96, label %97, label %102

97:                                               ; preds = %92
  %98 = load ptr, ptr %4, align 8, !tbaa !63
  %99 = getelementptr inbounds nuw %struct.H264Context, ptr %98, i32 0, i32 42
  %100 = load i32, ptr %99, align 8, !tbaa !138
  %101 = icmp ne i32 %100, 0
  br i1 %101, label %135, label %102

102:                                              ; preds = %97, %92
  call void @llvm.lifetime.start.p0(i64 8, ptr %10) #7
  %103 = load ptr, ptr %8, align 8, !tbaa !4
  %104 = getelementptr inbounds nuw %struct.H264Picture, ptr %103, i32 0, i32 0
  %105 = load ptr, ptr %104, align 8, !tbaa !11
  %106 = call ptr @av_frame_get_side_data(ptr noundef %105, i32 noundef 21)
  store ptr %106, ptr %10, align 8, !tbaa !139
  store i32 -1094995529, ptr %9, align 4, !tbaa !9
  %107 = load ptr, ptr %10, align 8, !tbaa !139
  %108 = icmp ne ptr %107, null
  br i1 %108, label %109, label %122

109:                                              ; preds = %102
  %110 = load ptr, ptr %8, align 8, !tbaa !4
  %111 = getelementptr inbounds nuw %struct.H264Picture, ptr %110, i32 0, i32 2
  %112 = load ptr, ptr %111, align 8, !tbaa !21
  %113 = load ptr, ptr %8, align 8, !tbaa !4
  %114 = getelementptr inbounds nuw %struct.H264Picture, ptr %113, i32 0, i32 0
  %115 = load ptr, ptr %114, align 8, !tbaa !11
  %116 = load ptr, ptr %4, align 8, !tbaa !63
  %117 = getelementptr inbounds nuw %struct.H264Context, ptr %116, i32 0, i32 6
  %118 = load ptr, ptr %10, align 8, !tbaa !139
  %119 = getelementptr inbounds nuw %struct.AVFrameSideData, ptr %118, i32 0, i32 1
  %120 = load ptr, ptr %119, align 8, !tbaa !141
  %121 = call i32 @ff_h274_apply_film_grain(ptr noundef %112, ptr noundef %115, ptr noundef %117, ptr noundef %120)
  store i32 %121, ptr %9, align 4, !tbaa !9
  br label %122

122:                                              ; preds = %109, %102
  %123 = load i32, ptr %9, align 4, !tbaa !9
  %124 = icmp slt i32 %123, 0
  br i1 %124, label %125, label %134

125:                                              ; preds = %122
  %126 = load ptr, ptr %4, align 8, !tbaa !63
  %127 = getelementptr inbounds nuw %struct.H264Context, ptr %126, i32 0, i32 1
  %128 = load ptr, ptr %127, align 8, !tbaa !67
  call void @llvm.memset.p0.i64(ptr align 1 %11, i8 0, i64 64, i1 false)
  %129 = getelementptr inbounds [64 x i8], ptr %11, i64 0, i64 0
  %130 = load i32, ptr %9, align 4, !tbaa !9
  %131 = call ptr @av_make_error_string(ptr noundef %129, i64 noundef 64, i32 noundef %130)
  call void (ptr, i32, ptr, ...) @av_log(ptr noundef %128, i32 noundef 24, ptr noundef @.str.6, ptr noundef %131)
  %132 = load ptr, ptr %8, align 8, !tbaa !4
  %133 = getelementptr inbounds nuw %struct.H264Picture, ptr %132, i32 0, i32 25
  store i32 0, ptr %133, align 4, !tbaa !25
  store i32 0, ptr %9, align 4, !tbaa !9
  br label %134

134:                                              ; preds = %125, %122
  call void @llvm.lifetime.end.p0(i64 8, ptr %10) #7
  br label %135

135:                                              ; preds = %134, %97, %87, %84
  br label %136

136:                                              ; preds = %135, %83
  %137 = load i32, ptr %6, align 4, !tbaa !9
  %138 = icmp ne i32 %137, 0
  br i1 %138, label %152, label %139

139:                                              ; preds = %136
  %140 = load ptr, ptr %4, align 8, !tbaa !63
  %141 = getelementptr inbounds nuw %struct.H264Context, ptr %140, i32 0, i32 20
  %142 = load i32, ptr %141, align 4, !tbaa !124
  %143 = icmp ne i32 %142, 0
  br i1 %143, label %152, label %144

144:                                              ; preds = %139
  %145 = load ptr, ptr %8, align 8, !tbaa !4
  %146 = getelementptr inbounds nuw %struct.H264Picture, ptr %145, i32 0, i32 1
  %147 = load ptr, ptr %4, align 8, !tbaa !63
  %148 = getelementptr inbounds nuw %struct.H264Context, ptr %147, i32 0, i32 41
  %149 = load i32, ptr %148, align 4, !tbaa !137
  %150 = icmp eq i32 %149, 2
  %151 = zext i1 %150 to i32
  call void @ff_thread_report_progress(ptr noundef %146, i32 noundef 2147483647, i32 noundef %151)
  br label %152

152:                                              ; preds = %144, %139, %136
  br label %153

153:                                              ; preds = %152
  br label %154

154:                                              ; preds = %153
  br label %155

155:                                              ; preds = %154
  %156 = load ptr, ptr %4, align 8, !tbaa !63
  %157 = getelementptr inbounds nuw %struct.H264Context, ptr %156, i32 0, i32 90
  store i32 0, ptr %157, align 8, !tbaa !144
  %158 = load i32, ptr %9, align 4, !tbaa !9
  call void @llvm.lifetime.end.p0(i64 4, ptr %9) #7
  call void @llvm.lifetime.end.p0(i64 8, ptr %8) #7
  call void @llvm.lifetime.end.p0(i64 8, ptr %7) #7
  ret i32 %158
}