; Function Attrs: nounwind uwtable
define i32 @ff_h264_field_end(ptr noundef initializes((732424, 732428)) %0, ptr noundef readnone captures(none) %1, i32 noundef %2) local_unnamed_addr #0 {
  %4 = alloca [64 x i8], align 1
  %5 = getelementptr inbounds nuw i8, ptr %0, i64 8
  %6 = load ptr, ptr %5, align 8, !tbaa !53
  %7 = getelementptr inbounds nuw i8, ptr %0, i64 729200
  %8 = load ptr, ptr %7, align 8, !tbaa !97
  %9 = getelementptr inbounds nuw i8, ptr %0, i64 732424
  store i32 0, ptr %9, align 8, !tbaa !98
  %.not = icmp eq i32 %2, 0
  br i1 %.not, label %10, label %14

10:                                               ; preds = %3
  %11 = getelementptr inbounds nuw i8, ptr %6, i64 664
  %12 = load i32, ptr %11, align 8, !tbaa !99
  %13 = and i32 %12, 1
  %.not43 = icmp eq i32 %13, 0
  br i1 %.not43, label %14, label %.thread

14:                                               ; preds = %10, %3
  %15 = getelementptr inbounds nuw i8, ptr %0, i64 730812
  %16 = load i32, ptr %15, align 4, !tbaa !111
  %.not44 = icmp eq i32 %16, 0
  br i1 %.not44, label %17, label %25

17:                                               ; preds = %14
  %18 = tail call i32 @ff_h264_execute_ref_pic_marking(ptr noundef nonnull %0) #6
  %19 = getelementptr inbounds nuw i8, ptr %0, i64 734808
  %20 = getelementptr inbounds nuw i8, ptr %0, i64 734812
  %21 = load i32, ptr %20, align 4, !tbaa !112
  %22 = getelementptr inbounds nuw i8, ptr %0, i64 734832
  store i32 %21, ptr %22, align 8, !tbaa !113
  %23 = load i32, ptr %19, align 8, !tbaa !114
  %24 = getelementptr inbounds nuw i8, ptr %0, i64 734836
  store i32 %23, ptr %24, align 4, !tbaa !115
  br label %25

25:                                               ; preds = %14, %17
  %.1 = phi i32 [ 0, %14 ], [ %18, %17 ]
  %26 = getelementptr inbounds nuw i8, ptr %0, i64 734840
  %27 = load i32, ptr %26, align 8, !tbaa !116
  %28 = getelementptr inbounds nuw i8, ptr %0, i64 734844
  store i32 %27, ptr %28, align 4, !tbaa !117
  %29 = getelementptr inbounds nuw i8, ptr %0, i64 734828
  %30 = load i32, ptr %29, align 4, !tbaa !118
  %31 = getelementptr inbounds nuw i8, ptr %0, i64 734848
  store i32 %30, ptr %31, align 8, !tbaa !119
  %32 = getelementptr inbounds nuw i8, ptr %6, i64 536
  %33 = load ptr, ptr %32, align 8, !tbaa !120
  %.not45 = icmp eq ptr %33, null
  br i1 %.not45, label %43, label %36

.thread:                                          ; preds = %10
  %34 = getelementptr inbounds nuw i8, ptr %6, i64 536
  %35 = load ptr, ptr %34, align 8, !tbaa !120
  %.not4552 = icmp eq ptr %35, null
  br i1 %.not4552, label %.thread54, label %36

36:                                               ; preds = %.thread, %25
  %37 = phi ptr [ %35, %.thread ], [ %33, %25 ]
  %38 = getelementptr inbounds nuw i8, ptr %37, i64 56
  %39 = load ptr, ptr %38, align 8, !tbaa !121
  %40 = tail call i32 %39(ptr noundef nonnull %6) #6
  %41 = icmp slt i32 %40, 0
  br i1 %41, label %42, label %66

42:                                               ; preds = %36
  tail call void (ptr, i32, ptr, ...) @av_log(ptr noundef nonnull %6, i32 noundef 16, ptr noundef nonnull @.str.5) #6
  br label %66

43:                                               ; preds = %25
  br i1 %.not, label %.thread54, label %.thread64

.thread54:                                        ; preds = %.thread, %43
  %.05356 = phi i32 [ %.1, %43 ], [ 0, %.thread ]
  %44 = getelementptr inbounds nuw i8, ptr %8, i64 716
  %45 = load i32, ptr %44, align 4, !tbaa !20
  %.not46 = icmp eq i32 %45, 0
  br i1 %.not46, label %.thread60, label %46

46:                                               ; preds = %.thread54
  %47 = getelementptr inbounds nuw i8, ptr %0, i64 731772
  %48 = load i32, ptr %47, align 4, !tbaa !124
  %.not47 = icmp eq i32 %48, 3
  br i1 %.not47, label %52, label %49

49:                                               ; preds = %46
  %50 = getelementptr inbounds nuw i8, ptr %0, i64 731776
  %51 = load i32, ptr %50, align 8, !tbaa !125
  %.not48 = icmp eq i32 %51, 0
  br i1 %.not48, label %52, label %.thread60

52:                                               ; preds = %49, %46
  %53 = load ptr, ptr %8, align 8, !tbaa !4
  %54 = tail call ptr @av_frame_get_side_data(ptr noundef %53, i32 noundef 21) #6
  %.not49 = icmp eq ptr %54, null
  br i1 %.not49, label %.thread57, label %55

55:                                               ; preds = %52
  %56 = getelementptr inbounds nuw i8, ptr %8, i64 40
  %57 = load ptr, ptr %56, align 8, !tbaa !18
  %58 = load ptr, ptr %8, align 8, !tbaa !4
  %59 = getelementptr inbounds nuw i8, ptr %0, i64 1392
  %60 = getelementptr inbounds nuw i8, ptr %54, i64 8
  %61 = load ptr, ptr %60, align 8, !tbaa !126
  %62 = tail call i32 @ff_h274_apply_film_grain(ptr noundef %57, ptr noundef %58, ptr noundef nonnull %59, ptr noundef %61) #6
  %63 = icmp slt i32 %62, 0
  br i1 %63, label %.thread57, label %.thread60

.thread57:                                        ; preds = %52, %55
  %.359 = phi i32 [ %62, %55 ], [ -1094995529, %52 ]
  %64 = load ptr, ptr %5, align 8, !tbaa !53
  call void @llvm.memset.p0.i64(ptr noundef nonnull align 1 dereferenceable(64) %4, i8 0, i64 64, i1 false)
  %65 = call i32 @av_strerror(i32 noundef range(i32 -2147483648, 0) %.359, ptr noundef nonnull %4, i64 noundef 64) #6
  call void (ptr, i32, ptr, ...) @av_log(ptr noundef %64, i32 noundef 24, ptr noundef nonnull @.str.6, ptr noundef nonnull %4) #6
  store i32 0, ptr %44, align 4, !tbaa !20
  br label %.thread60

66:                                               ; preds = %36, %42
  br i1 %.not, label %.thread60, label %.thread64

.thread60:                                        ; preds = %49, %.thread54, %.thread57, %55, %66
  %.263 = phi i32 [ %40, %66 ], [ %62, %55 ], [ 0, %.thread57 ], [ %.05356, %.thread54 ], [ %.05356, %49 ]
  %67 = getelementptr inbounds nuw i8, ptr %0, i64 730812
  %68 = load i32, ptr %67, align 4, !tbaa !111
  %.not50 = icmp eq i32 %68, 0
  br i1 %.not50, label %69, label %.thread64

69:                                               ; preds = %.thread60
  %70 = getelementptr inbounds nuw i8, ptr %8, i64 8
  %71 = getelementptr inbounds nuw i8, ptr %0, i64 731772
  %72 = load i32, ptr %71, align 4, !tbaa !124
  %73 = icmp eq i32 %72, 2
  %74 = zext i1 %73 to i32
  call void @ff_thread_report_progress(ptr noundef nonnull %70, i32 noundef 2147483647, i32 noundef %74) #6
  br label %.thread64

.thread64:                                        ; preds = %43, %66, %.thread60, %69
  %.262 = phi i32 [ %40, %66 ], [ %.263, %.thread60 ], [ %.263, %69 ], [ %.1, %43 ]
  %75 = getelementptr inbounds nuw i8, ptr %0, i64 736528
  store i32 0, ptr %75, align 8, !tbaa !129
  ret i32 %.262
}